target datalayout = "e-m:e-p270:32:32-p271:32:32-p272:64:64-i64:64-i128:128-f80:128-n8:16:32:64-S128"
target triple = "x86_64-pc-linux-gnu"

@num_code_object_created_events = internal global [2 x i32] zeroinitializer, align 4
@num_code_object_destroyed_events = internal global [2 x i32] zeroinitializer, align 4

; Function Attrs: nounwind uwtable
define internal i32 @handle_code_object_event(i32 noundef %0, i32 noundef %1, ptr noundef %2) #0 {
  %4 = alloca i32, align 4
  %5 = alloca i32, align 4
  %6 = alloca i32, align 4
  %7 = alloca ptr, align 8
  store i32 %0, ptr %5, align 4, !tbaa !10
  store i32 %1, ptr %6, align 4, !tbaa !10
  store ptr %2, ptr %7, align 8, !tbaa !53
  %8 = load i32, ptr %6, align 4, !tbaa !10
  %9 = icmp eq i32 %8, 0
  br i1 %9, label %10, label %16

10:                                               ; preds = %3
  %11 = load i32, ptr %5, align 4, !tbaa !10
  %12 = sext i32 %11 to i64
  %13 = getelementptr [2 x i32], ptr @num_code_object_created_events, i64 0, i64 %12
  %14 = load i32, ptr %13, align 4, !tbaa !10
  %15 = add i32 %14, 1
  store i32 %15, ptr %13, align 4, !tbaa !10
  br label %27

16:                                               ; preds = %3
  %17 = load i32, ptr %6, align 4, !tbaa !10
  %18 = icmp eq i32 %17, 1
  br i1 %18, label %19, label %25

19:                                               ; preds = %16
  %20 = load i32, ptr %5, align 4, !tbaa !10
  %21 = sext i32 %20 to i64
  %22 = getelementptr [2 x i32], ptr @num_code_object_destroyed_events, i64 0, i64 %21
  %23 = load i32, ptr %22, align 4, !tbaa !10
  %24 = add i32 %23, 1
  store i32 %24, ptr %22, align 4, !tbaa !10
  br label %26

25:                                               ; preds = %16
  store i32 -1, ptr %4, align 4
  br label %28

26:                                               ; preds = %19
  br label %27

27:                                               ; preds = %26, %10
  store i32 0, ptr %4, align 4
  br label %28

28:                                               ; preds = %27, %25
  %29 = load i32, ptr %4, align 4
  ret i32 %29
}

; Function Attrs: nounwind uwtable
define internal i32 @first_code_object_callback(i32 noundef %0, ptr noundef %1) #0 {
  %3 = alloca i32, align 4
  %4 = alloca ptr, align 8
  store i32 %0, ptr %3, align 4, !tbaa !10
  store ptr %1, ptr %4, align 8, !tbaa !53
  %5 = load i32, ptr %3, align 4, !tbaa !10
  %6 = load ptr, ptr %4, align 8, !tbaa !53
  %7 = call i32 @handle_code_object_event(i32 noundef 0, i32 noundef %5, ptr noundef %6)
  ret i32 %7
}